; Function Attrs: nounwind uwtable
define ptr @Hop_Complement(ptr noundef %0, ptr noundef %1, i32 noundef %2) local_unnamed_addr #0 {
  %4 = getelementptr i8, ptr %0, i64 80
  %.val = load i32, ptr %4, align 8, !tbaa !16
  %.not = icmp slt i32 %2, %.val
  br i1 %.not, label %7, label %5

5:                                                ; preds = %3
  %6 = tail call i32 (ptr, ...) @printf(ptr noundef nonnull dereferenceable(1) @.str.1, i32 noundef %2)
  br label %20

7:                                                ; preds = %3
  %8 = ptrtoint ptr %1 to i64
  %9 = and i64 %8, -2
  %10 = inttoptr i64 %9 to ptr
  %.val11 = load ptr, ptr %0, align 8, !tbaa !30
  %11 = getelementptr i8, ptr %.val11, i64 8
  %.val11.val = load ptr, ptr %11, align 8, !tbaa !14
  %12 = sext i32 %2 to i64
  %13 = getelementptr inbounds ptr, ptr %.val11.val, i64 %12
  %14 = load ptr, ptr %13, align 8, !tbaa !15
  tail call void @Hop_Complement_rec(ptr noundef nonnull %0, ptr noundef %10, ptr noundef %14)
  tail call void @Hop_ConeUnmark_rec(ptr noundef %10)
  %15 = load ptr, ptr %10, align 8, !tbaa !29
  %16 = and i64 %8, 1
  %17 = ptrtoint ptr %15 to i64
  %18 = xor i64 %16, %17
  %19 = inttoptr i64 %18 to ptr
  br label %20

20:                                               ; preds = %7, %5
  %.0 = phi ptr [ null, %5 ], [ %19, %7 ]
  ret ptr %.0
}